; Function Attrs: mustprogress uwtable
define void @_ZN7rocksdb21OptimisticTransaction7TryLockEPNS_18ColumnFamilyHandleERKNS_5SliceEbbbb(ptr noalias nocapture writeonly sret(%"class.rocksdb::Status") align 8 %agg.result, ptr noundef nonnull align 8 dereferenceable(328) %this, ptr noundef %column_family, ptr noundef nonnull align 8 dereferenceable(16) %key, i1 noundef zeroext %read_only, i1 noundef zeroext %exclusive, i1 noundef zeroext %do_validate, i1 zeroext %assume_tracked) unnamed_addr #2 align 2 personality ptr @__gxx_personality_v0 {
entry:
  %key_str = alloca %"class.std::__cxx11::basic_string", align 8
  br i1 %do_validate, label %if.end, label %if.then

if.then:                                          ; preds = %entry
  %state_.i.i = getelementptr inbounds i8, ptr %agg.result, i64 8
  store ptr null, ptr %state_.i.i, align 8, !alias.scope !17
  tail call void @llvm.memset.p0.i64(ptr noundef nonnull align 8 dereferenceable(6) %agg.result, i8 0, i64 6, i1 false), !alias.scope !17
  br label %return

if.end:                                           ; preds = %entry
  %call = tail call noundef i32 @_ZN7rocksdb17GetColumnFamilyIDEPNS_18ColumnFamilyHandleE(ptr noundef %column_family)
  tail call void @_ZN7rocksdb19TransactionBaseImpl19SetSnapshotIfNeededEv(ptr noundef nonnull align 8 dereferenceable(320) %this)
  %snapshot_ = getelementptr inbounds i8, ptr %this, i64 128
  %0 = load ptr, ptr %snapshot_, align 8
  %cmp.i.not = icmp eq ptr %0, null
  br i1 %cmp.i.not, label %if.else, label %if.then6

if.then6:                                         ; preds = %if.end
  %vtable = load ptr, ptr %0, align 8
  br label %if.end13

if.else:                                          ; preds = %if.end
  %db_ = getelementptr inbounds i8, ptr %this, i64 64
  %1 = load ptr, ptr %db_, align 8
  %vtable10 = load ptr, ptr %1, align 8
  %vfn11 = getelementptr inbounds i8, ptr %vtable10, i64 848
  br label %if.end13

if.end13:                                         ; preds = %if.else, %if.then6
  %vfn11.sink = phi ptr [ %vfn11, %if.else ], [ %vtable, %if.then6 ]
  %.sink = phi ptr [ %1, %if.else ], [ %0, %if.then6 ]
  %2 = load ptr, ptr %vfn11.sink, align 8
  %call12 = tail call noundef i64 %2(ptr noundef nonnull align 8 dereferenceable(8) %.sink)
  call void @_ZNK7rocksdb5Slice8ToStringB5cxx11Eb(ptr nonnull sret(%"class.std::__cxx11::basic_string") align 8 %key_str, ptr noundef nonnull align 8 dereferenceable(16) %key, i1 noundef zeroext false)
  invoke void @_ZN7rocksdb19TransactionBaseImpl8TrackKeyEjRKNSt7__cxx1112basic_stringIcSt11char_traitsIcESaIcEEEmbb(ptr noundef nonnull align 8 dereferenceable(320) %this, i32 noundef %call, ptr noundef nonnull align 8 dereferenceable(32) %key_str, i64 noundef %call12, i1 noundef zeroext %read_only, i1 noundef zeroext %exclusive)
          to label %invoke.cont16 unwind label %lpad

invoke.cont16:                                    ; preds = %if.end13
  %state_.i.i1 = getelementptr inbounds i8, ptr %agg.result, i64 8
  store ptr null, ptr %state_.i.i1, align 8, !alias.scope !20
  call void @llvm.memset.p0.i64(ptr noundef nonnull align 8 dereferenceable(6) %agg.result, i8 0, i64 6, i1 false), !alias.scope !20
  call void @_ZNSt7__cxx1112basic_stringIcSt11char_traitsIcESaIcEED1Ev(ptr noundef nonnull align 8 dereferenceable(32) %key_str) #17
  br label %return

lpad:                                             ; preds = %if.end13
  %3 = landingpad { ptr, i32 }
          cleanup
  call void @_ZNSt7__cxx1112basic_stringIcSt11char_traitsIcESaIcEED1Ev(ptr noundef nonnull align 8 dereferenceable(32) %key_str) #17
  resume { ptr, i32 } %3

return:                                           ; preds = %invoke.cont16, %if.then
  ret void
}